target datalayout = "e-m:e-p270:32:32-p271:32:32-p272:64:64-i64:64-i128:128-f80:128-n8:16:32:64-S128"
target triple = "x86_64-unknown-linux-gnu"

%"class.facebook::velox::FlatVector" = type { %"class.facebook::velox::SimpleVector", %"class.boost::intrusive_ptr", ptr, %"class.std::vector", %"class.folly::F14FastSet" }
%"class.facebook::velox::SimpleVector" = type { %"class.facebook::velox::BaseVector.base", %"class.std::optional.0", i8, i32, %"struct.facebook::velox::SimpleVectorStats" }
%"class.facebook::velox::BaseVector.base" = type <{ ptr, %"class.std::shared_ptr", i8, [3 x i8], i32, %"class.boost::intrusive_ptr", ptr, ptr, i32, %"class.std::optional", %"class.std::optional", %"class.std::optional", %"class.std::optional", i32, i8, i8, i8 }>
%"class.std::shared_ptr" = type { %"class.std::__shared_ptr" }
%"class.std::__shared_ptr" = type { ptr, %"class.std::__shared_count" }
%"class.std::__shared_count" = type { ptr }
%"class.std::optional" = type { %"struct.std::_Optional_base" }
%"struct.std::_Optional_base" = type { %"struct.std::_Optional_payload" }
%"struct.std::_Optional_payload" = type { %"struct.std::_Optional_payload_base.base", [3 x i8] }
%"struct.std::_Optional_payload_base.base" = type <{ %"union.std::_Optional_payload_base<int>::_Storage", i8 }>
%"union.std::_Optional_payload_base<int>::_Storage" = type { i32 }
%"class.std::optional.0" = type { %"struct.std::_Optional_base.1" }
%"struct.std::_Optional_base.1" = type { %"struct.std::_Optional_payload.3" }
%"struct.std::_Optional_payload.3" = type { %"struct.std::_Optional_payload_base.4" }
%"struct.std::_Optional_payload_base.4" = type { %"union.std::_Optional_payload_base<bool>::_Storage", i8 }
%"union.std::_Optional_payload_base<bool>::_Storage" = type { %"struct.std::_Optional_payload_base<bool>::_Empty_byte" }
%"struct.std::_Optional_payload_base<bool>::_Empty_byte" = type { i8 }
%"struct.facebook::velox::SimpleVectorStats" = type { %"class.std::optional.0", %"class.std::optional.0" }
%"class.boost::intrusive_ptr" = type { ptr }
%"class.std::vector" = type { %"struct.std::_Vector_base" }
%"struct.std::_Vector_base" = type { %"struct.std::_Vector_base<boost::intrusive_ptr<facebook::velox::Buffer>, std::allocator<boost::intrusive_ptr<facebook::velox::Buffer>>>::_Vector_impl" }
%"struct.std::_Vector_base<boost::intrusive_ptr<facebook::velox::Buffer>, std::allocator<boost::intrusive_ptr<facebook::velox::Buffer>>>::_Vector_impl" = type { %"struct.std::_Vector_base<boost::intrusive_ptr<facebook::velox::Buffer>, std::allocator<boost::intrusive_ptr<facebook::velox::Buffer>>>::_Vector_impl_data" }
%"struct.std::_Vector_base<boost::intrusive_ptr<facebook::velox::Buffer>, std::allocator<boost::intrusive_ptr<facebook::velox::Buffer>>>::_Vector_impl_data" = type { ptr, ptr, ptr }
%"class.folly::F14FastSet" = type { %"class.folly::F14ValueSet" }
%"class.folly::F14ValueSet" = type { %"class.folly::f14::detail::F14BasicSet" }
%"class.folly::f14::detail::F14BasicSet" = type { %"class.folly::f14::detail::F14Table" }
%"class.folly::f14::detail::F14Table" = type { ptr, i64, %"struct.folly::f14::detail::SizeAndPackedBegin" }
%"struct.folly::f14::detail::SizeAndPackedBegin" = type { i64, %"class.folly::f14::detail::PackedChunkItemPtr" }
%"class.folly::f14::detail::PackedChunkItemPtr" = type { i64 }
%"class.facebook::velox::BaseVector" = type <{ ptr, %"class.std::shared_ptr", i8, [3 x i8], i32, %"class.boost::intrusive_ptr", ptr, ptr, i32, %"class.std::optional", %"class.std::optional", %"class.std::optional", %"class.std::optional", i32, i8, i8, i8, [5 x i8] }>
%"class.facebook::velox::Buffer" = type { ptr, ptr, ptr, i64, i64, %"struct.std::atomic.30", i8, [2 x i64] }
%"struct.std::atomic.30" = type { %"struct.std::__atomic_base.31" }
%"struct.std::__atomic_base.31" = type { i32 }

@_ZN8facebook5velox4bitsL13kZeroBitmasksE = internal constant [8 x i8] c"\FE\FD\FB\F7\EF\DF\BF\7F", align 1

; Function Attrs: mustprogress nounwind uwtable
define linkonce_odr void @_ZN8facebook5velox4bits8clearBitImEEvPT_j(ptr noundef %bits, i32 noundef %idx) #0 comdat {
entry:
  %bits.addr = alloca ptr, align 8
  %idx.addr = alloca i32, align 4
  %bitsAs8Bit = alloca ptr, align 8
  store ptr %bits, ptr %bits.addr, align 8
  store i32 %idx, ptr %idx.addr, align 4
  %0 = load ptr, ptr %bits.addr, align 8
  store ptr %0, ptr %bitsAs8Bit, align 8
  %1 = load i32, ptr %idx.addr, align 4
  %rem = urem i32 %1, 8
  %idxprom = zext i32 %rem to i64
  %arrayidx = getelementptr inbounds [8 x i8], ptr @_ZN8facebook5velox4bitsL13kZeroBitmasksE, i64 0, i64 %idxprom
  %2 = load i8, ptr %arrayidx, align 1
  %conv = zext i8 %2 to i32
  %3 = load ptr, ptr %bitsAs8Bit, align 8
  %4 = load i32, ptr %idx.addr, align 4
  %div = udiv i32 %4, 8
  %idxprom1 = zext i32 %div to i64
  %arrayidx2 = getelementptr inbounds i8, ptr %3, i64 %idxprom1
  %5 = load i8, ptr %arrayidx2, align 1
  %conv3 = zext i8 %5 to i32
  %and = and i32 %conv3, %conv
  %conv4 = trunc i32 %and to i8
  store i8 %conv4, ptr %arrayidx2, align 1
  ret void
}

; Function Attrs: mustprogress nounwind uwtable
define linkonce_odr void @_ZN8facebook5velox4bits6setBitImEEvPT_j(ptr noundef %bits, i32 noundef %idx) #0 comdat {
entry:
  %bits.addr = alloca ptr, align 8
  %idx.addr = alloca i32, align 4
  %bitsAs8Bit = alloca ptr, align 8
  store ptr %bits, ptr %bits.addr, align 8
  store i32 %idx, ptr %idx.addr, align 4
  %0 = load ptr, ptr %bits.addr, align 8
  store ptr %0, ptr %bitsAs8Bit, align 8
  %1 = load i32, ptr %idx.addr, align 4
  %rem = urem i32 %1, 8
  %shl = shl i32 1, %rem
  %2 = load ptr, ptr %bitsAs8Bit, align 8
  %3 = load i32, ptr %idx.addr, align 4
  %div = udiv i32 %3, 8
  %idxprom = zext i32 %div to i64
  %arrayidx = getelementptr inbounds i8, ptr %2, i64 %idxprom
  %4 = load i8, ptr %arrayidx, align 1
  %conv = zext i8 %4 to i32
  %or = or i32 %conv, %shl
  %conv1 = trunc i32 %or to i8
  store i8 %conv1, ptr %arrayidx, align 1
  ret void
}

; Function Attrs: mustprogress uwtable
define linkonce_odr void @_ZN8facebook5velox4bits6setBitImEEvPT_jb(ptr noundef %bits, i32 noundef %idx, i1 noundef zeroext %value) #1 comdat {
entry:
  %bits.addr = alloca ptr, align 8
  %idx.addr = alloca i32, align 4
  %value.addr = alloca i8, align 1
  store ptr %bits, ptr %bits.addr, align 8
  store i32 %idx, ptr %idx.addr, align 4
  %frombool = zext i1 %value to i8
  store i8 %frombool, ptr %value.addr, align 1
  %0 = load i8, ptr %value.addr, align 1
  %tobool = trunc i8 %0 to i1
  br i1 %tobool, label %cond.true, label %cond.false

cond.true:                                        ; preds = %entry
  %1 = load ptr, ptr %bits.addr, align 8
  %2 = load i32, ptr %idx.addr, align 4
  call void @_ZN8facebook5velox4bits6setBitImEEvPT_j(ptr noundef %1, i32 noundef %2)
  br label %cond.end

cond.false:                                       ; preds = %entry
  %3 = load ptr, ptr %bits.addr, align 8
  %4 = load i32, ptr %idx.addr, align 4
  call void @_ZN8facebook5velox4bits8clearBitImEEvPT_j(ptr noundef %3, i32 noundef %4)
  br label %cond.end

cond.end:                                         ; preds = %cond.false, %cond.true
  ret void
}

; Function Attrs: mustprogress uwtable
define linkonce_odr void @_ZN8facebook5velox4bits7setNullEPmib(ptr noundef %bits, i32 noundef %index, i1 noundef zeroext %isNull) #1 comdat {
entry:
  %bits.addr = alloca ptr, align 8
  %index.addr = alloca i32, align 4
  %isNull.addr = alloca i8, align 1
  store ptr %bits, ptr %bits.addr, align 8
  store i32 %index, ptr %index.addr, align 4
  %frombool = zext i1 %isNull to i8
  store i8 %frombool, ptr %isNull.addr, align 1
  %0 = load ptr, ptr %bits.addr, align 8
  %1 = load i32, ptr %index.addr, align 4
  %2 = load i8, ptr %isNull.addr, align 1
  %tobool = trunc i8 %2 to i1
  %lnot = xor i1 %tobool, true
  call void @_ZN8facebook5velox4bits6setBitImEEvPT_jb(ptr noundef %0, i32 noundef %1, i1 noundef zeroext %lnot)
  ret void
}

; Function Attrs: mustprogress uwtable
define linkonce_odr noundef ptr @_ZNK8facebook5velox6Buffer9asMutableImEEPT_v(ptr noundef nonnull align 8 dereferenceable(64) %this) #1 comdat align 2 {
entry:
  %this.addr = alloca ptr, align 8
  store ptr %this, ptr %this.addr, align 8
  %this1 = load ptr, ptr %this.addr, align 8
  %vtable = load ptr, ptr %this1, align 8
  %vfn = getelementptr inbounds ptr, ptr %vtable, i64 3
  %0 = load ptr, ptr %vfn, align 8
  %call = call noundef zeroext i1 %0(ptr noundef nonnull align 8 dereferenceable(64) %this1)
  %lnot = xor i1 %call, true
  %lnot2 = xor i1 %lnot, true
  br i1 %lnot2, label %if.then, label %if.end

if.then:                                          ; preds = %entry
  call void @llvm.trap()
  br label %if.end

if.end:                                           ; preds = %if.then, %entry
  %data_ = getelementptr inbounds %"class.facebook::velox::Buffer", ptr %this1, i32 0, i32 2
  %1 = load ptr, ptr %data_, align 8
  ret ptr %1
}

; Function Attrs: mustprogress nounwind uwtable
define linkonce_odr noundef ptr @_ZNK5boost13intrusive_ptrIN8facebook5velox6BufferEEptEv(ptr noundef nonnull align 8 dereferenceable(8) %this) #0 comdat align 2 {
entry:
  %this.addr = alloca ptr, align 8
  store ptr %this, ptr %this.addr, align 8
  %this1 = load ptr, ptr %this.addr, align 8
  %px = getelementptr inbounds %"class.boost::intrusive_ptr", ptr %this1, i32 0, i32 0
  %0 = load ptr, ptr %px, align 8
  ret ptr %0
}

; Function Attrs: mustprogress uwtable
define linkonce_odr void @_ZN8facebook5velox10BaseVector11ensureNullsEv(ptr noundef nonnull align 8 dereferenceable(99) %this) #1 comdat align 2 {
entry:
  %this.addr = alloca ptr, align 8
  store ptr %this, ptr %this.addr, align 8
  %this1 = load ptr, ptr %this.addr, align 8
  %length_ = getelementptr inbounds %"class.facebook::velox::BaseVector", ptr %this1, i32 0, i32 8
  %0 = load i32, ptr %length_, align 8
  call void @_ZN8facebook5velox10BaseVector19ensureNullsCapacityEib(ptr noundef nonnull align 8 dereferenceable(99) %this1, i32 noundef %0, i1 noundef zeroext true)
  ret void
}

; Function Attrs: mustprogress nounwind uwtable
define linkonce_odr noundef zeroext i1 @_ZNK5boost13intrusive_ptrIN8facebook5velox6BufferEEntEv(ptr noundef nonnull align 8 dereferenceable(8) %this) #0 comdat align 2 {
entry:
  %this.addr = alloca ptr, align 8
  store ptr %this, ptr %this.addr, align 8
  %this1 = load ptr, ptr %this.addr, align 8
  %px = getelementptr inbounds %"class.boost::intrusive_ptr", ptr %this1, i32 0, i32 0
  %0 = load ptr, ptr %px, align 8
  %cmp = icmp eq ptr %0, null
  ret i1 %cmp
}

; Function Attrs: mustprogress uwtable
define linkonce_odr void @_ZN8facebook5velox10FlatVectorIbE12ensureValuesEv(ptr noundef nonnull align 8 dereferenceable(184) %this) #1 comdat align 2 {
entry:
  %this.addr = alloca ptr, align 8
  store ptr %this, ptr %this.addr, align 8
  %this1 = load ptr, ptr %this.addr, align 8
  %rawValues_ = getelementptr inbounds %"class.facebook::velox::FlatVector", ptr %this1, i32 0, i32 2
  %0 = load ptr, ptr %rawValues_, align 8
  %cmp = icmp eq ptr %0, null
  br i1 %cmp, label %if.then, label %if.end

if.then:                                          ; preds = %entry
  %call = call noundef ptr @_ZN8facebook5velox10FlatVectorIbE16mutableRawValuesEv(ptr noundef nonnull align 8 dereferenceable(184) %this1)
  br label %if.end

if.end:                                           ; preds = %if.then, %entry
  ret void
}

; Function Attrs: mustprogress uwtable
define void @_ZN8facebook5velox10FlatVectorIbE3setEib(ptr noundef nonnull align 8 dereferenceable(184) %this, i32 noundef %idx, i1 noundef zeroext %value) #1 align 2 {
entry:
  %this.addr.i = alloca ptr, align 8
  %idx.addr.i = alloca i32, align 4
  %isNull.addr.i = alloca i8, align 1
  %this.addr = alloca ptr, align 8
  %idx.addr = alloca i32, align 4
  %value.addr = alloca i8, align 1
  store ptr %this, ptr %this.addr, align 8
  store i32 %idx, ptr %idx.addr, align 4
  %frombool = zext i1 %value to i8
  store i8 %frombool, ptr %value.addr, align 1
  %this1 = load ptr, ptr %this.addr, align 8
  call void @_ZN8facebook5velox10FlatVectorIbE12ensureValuesEv(ptr noundef nonnull align 8 dereferenceable(184) %this1)
  %rawNulls_ = getelementptr inbounds %"class.facebook::velox::BaseVector", ptr %this1, i32 0, i32 6
  %0 = load ptr, ptr %rawNulls_, align 8
  %tobool = icmp ne ptr %0, null
  br i1 %tobool, label %if.then, label %if.end

if.then:                                          ; preds = %entry
  %1 = load i32, ptr %idx.addr, align 4
  store ptr %this1, ptr %this.addr.i, align 8
  store i32 %1, ptr %idx.addr.i, align 4
  store i8 0, ptr %isNull.addr.i, align 1
  %this1.i = load ptr, ptr %this.addr.i, align 8
  %nulls_.i = getelementptr inbounds %"class.facebook::velox::BaseVector", ptr %this1.i, i32 0, i32 5
  %call.i = call noundef zeroext i1 @_ZNK5boost13intrusive_ptrIN8facebook5velox6BufferEEntEv(ptr noundef nonnull align 8 dereferenceable(8) %nulls_.i) #25
  br i1 %call.i, label %land.lhs.true.i, label %if.end.i

land.lhs.true.i:                                  ; preds = %if.then
  %2 = load i8, ptr %isNull.addr.i, align 1
  %tobool.i = trunc i8 %2 to i1
  br i1 %tobool.i, label %if.end.i, label %if.then.i

if.then.i:                                        ; preds = %land.lhs.true.i
  br label %_ZN8facebook5velox10BaseVector7setNullEib.exit

if.end.i:                                         ; preds = %land.lhs.true.i, %if.then
  call void @_ZN8facebook5velox10BaseVector11ensureNullsEv(ptr noundef nonnull align 8 dereferenceable(99) %this1.i)
  %nulls_2.i = getelementptr inbounds %"class.facebook::velox::BaseVector", ptr %this1.i, i32 0, i32 5
  %call3.i = call noundef ptr @_ZNK5boost13intrusive_ptrIN8facebook5velox6BufferEEptEv(ptr noundef nonnull align 8 dereferenceable(8) %nulls_2.i) #25
  %call4.i = call noundef ptr @_ZNK8facebook5velox6Buffer9asMutableImEEPT_v(ptr noundef nonnull align 8 dereferenceable(64) %call3.i)
  %3 = load i32, ptr %idx.addr.i, align 4
  %4 = load i8, ptr %isNull.addr.i, align 1
  %tobool5.i = trunc i8 %4 to i1
  call void @_ZN8facebook5velox4bits7setNullEPmib(ptr noundef %call4.i, i32 noundef %3, i1 noundef zeroext %tobool5.i)
  br label %_ZN8facebook5velox10BaseVector7setNullEib.exit

_ZN8facebook5velox10BaseVector7setNullEib.exit:   ; preds = %if.end.i, %if.then.i
  br label %if.end

if.end:                                           ; preds = %_ZN8facebook5velox10BaseVector7setNullEib.exit, %entry
  %rawValues_ = getelementptr inbounds %"class.facebook::velox::FlatVector", ptr %this1, i32 0, i32 2
  %5 = load ptr, ptr %rawValues_, align 8
  %6 = load i32, ptr %idx.addr, align 4
  %7 = load i8, ptr %value.addr, align 1
  %tobool2 = trunc i8 %7 to i1
  call void @_ZN8facebook5velox4bits6setBitImEEvPT_jb(ptr noundef %5, i32 noundef %6, i1 noundef zeroext %tobool2)
  ret void
}