; Function Attrs: mustprogress uwtable
define void @_ZN8facebook5velox10FlatVectorIbE3setEib(ptr noundef nonnull align 8 dereferenceable(184) %this, i32 noundef %idx, i1 noundef zeroext %value) local_unnamed_addr #3 align 2 {
entry:
  %rawValues_.i = getelementptr inbounds i8, ptr %this, i64 120
  %0 = load ptr, ptr %rawValues_.i, align 8
  %cmp.i = icmp eq ptr %0, null
  br i1 %cmp.i, label %if.then.i, label %_ZN8facebook5velox10FlatVectorIbE12ensureValuesEv.exit

if.then.i:                                        ; preds = %entry
  %call.i4 = tail call noundef ptr @_ZN8facebook5velox10FlatVectorIbE16mutableRawValuesEv(ptr noundef nonnull align 8 dereferenceable(184) %this)
  br label %_ZN8facebook5velox10FlatVectorIbE12ensureValuesEv.exit

_ZN8facebook5velox10FlatVectorIbE12ensureValuesEv.exit: ; preds = %entry, %if.then.i
  %rawNulls_ = getelementptr inbounds i8, ptr %this, i64 40
  %1 = load ptr, ptr %rawNulls_, align 8
  %tobool.not = icmp eq ptr %1, null
  br i1 %tobool.not, label %if.end, label %if.then

if.then:                                          ; preds = %_ZN8facebook5velox10FlatVectorIbE12ensureValuesEv.exit
  %nulls_.i = getelementptr inbounds i8, ptr %this, i64 32
  %2 = load ptr, ptr %nulls_.i, align 8
  %cmp.i5 = icmp eq ptr %2, null
  br i1 %cmp.i5, label %if.end, label %if.end.i

if.end.i:                                         ; preds = %if.then
  %length_.i = getelementptr inbounds i8, ptr %this, i64 56
  %3 = load i32, ptr %length_.i, align 8
  tail call void @_ZN8facebook5velox10BaseVector19ensureNullsCapacityEib(ptr noundef nonnull align 8 dereferenceable(99) %this, i32 noundef %3, i1 noundef zeroext true)
  %4 = load ptr, ptr %nulls_.i, align 8
  %vtable.i = load ptr, ptr %4, align 8
  %vfn.i = getelementptr inbounds i8, ptr %vtable.i, i64 24
  %5 = load ptr, ptr %vfn.i, align 8
  %call.i = tail call noundef zeroext i1 %5(ptr noundef nonnull align 8 dereferenceable(64) %4)
  br i1 %call.i, label %if.then.i7, label %_ZNK8facebook5velox6Buffer9asMutableImEEPT_v.exit

if.then.i7:                                       ; preds = %if.end.i
  tail call void @llvm.trap()
  unreachable

_ZNK8facebook5velox6Buffer9asMutableImEEPT_v.exit: ; preds = %if.end.i
  %data_.i = getelementptr inbounds i8, ptr %4, i64 16
  %6 = load ptr, ptr %data_.i, align 8
  %rem.i.i.i = and i32 %idx, 7
  %shl.i.i.i = shl nuw nsw i32 1, %rem.i.i.i
  %div2.i.i.i = lshr i32 %idx, 3
  %idxprom.i.i.i = zext nneg i32 %div2.i.i.i to i64
  %arrayidx.i.i.i = getelementptr inbounds i8, ptr %6, i64 %idxprom.i.i.i
  %7 = load i8, ptr %arrayidx.i.i.i, align 1
  %8 = trunc i32 %shl.i.i.i to i8
  %conv1.i.i.i = or i8 %7, %8
  store i8 %conv1.i.i.i, ptr %arrayidx.i.i.i, align 1
  br label %if.end

if.end:                                           ; preds = %if.then, %_ZNK8facebook5velox6Buffer9asMutableImEEPT_v.exit, %_ZN8facebook5velox10FlatVectorIbE12ensureValuesEv.exit
  %9 = load ptr, ptr %rawValues_.i, align 8
  %rem.i.i = and i32 %idx, 7
  br i1 %value, label %cond.true.i, label %cond.false.i

cond.true.i:                                      ; preds = %if.end
  %shl.i.i = shl nuw nsw i32 1, %rem.i.i
  %div2.i.i = lshr i32 %idx, 3
  %idxprom.i.i = zext nneg i32 %div2.i.i to i64
  %arrayidx.i.i = getelementptr inbounds i8, ptr %9, i64 %idxprom.i.i
  %10 = load i8, ptr %arrayidx.i.i, align 1
  %11 = trunc i32 %shl.i.i to i8
  %conv1.i.i = or i8 %10, %11
  store i8 %conv1.i.i, ptr %arrayidx.i.i, align 1
  br label %_ZN8facebook5velox4bits6setBitImEEvPT_jb.exit

cond.false.i:                                     ; preds = %if.end
  %idxprom.i4.i = zext nneg i32 %rem.i.i to i64
  %arrayidx.i5.i = getelementptr inbounds [8 x i8], ptr @_ZN8facebook5velox4bitsL13kZeroBitmasksE, i64 0, i64 %idxprom.i4.i
  %12 = load i8, ptr %arrayidx.i5.i, align 1
  %div2.i6.i = lshr i32 %idx, 3
  %idxprom1.i.i = zext nneg i32 %div2.i6.i to i64
  %arrayidx2.i.i = getelementptr inbounds i8, ptr %9, i64 %idxprom1.i.i
  %13 = load i8, ptr %arrayidx2.i.i, align 1
  %and3.i.i = and i8 %13, %12
  store i8 %and3.i.i, ptr %arrayidx2.i.i, align 1
  br label %_ZN8facebook5velox4bits6setBitImEEvPT_jb.exit

_ZN8facebook5velox4bits6setBitImEEvPT_jb.exit:    ; preds = %cond.true.i, %cond.false.i
  ret void
}